; Function Attrs: nounwind uwtable
define i32 @Sfm_MffcDeref_rec(ptr noundef readonly captures(none) %0) local_unnamed_addr #2 {
  %2 = getelementptr inbounds nuw i8, ptr %0, i64 56
  %3 = load ptr, ptr %2, align 8, !tbaa !119
  %4 = tail call double @Mio_GateReadArea(ptr noundef %3) #25
  %5 = fptrunc double %4 to float
  %6 = fmul float %5, 1.000000e+03
  %7 = fptosi float %6 to i32
  %8 = getelementptr i8, ptr %0, i64 28
  %.val16 = load i32, ptr %8, align 4, !tbaa !121
  %9 = icmp sgt i32 %.val16, 0
  br i1 %9, label %.lr.ph, label %.critedge

.lr.ph:                                           ; preds = %1
  %10 = getelementptr i8, ptr %0, i64 32
  br label %11

11:                                               ; preds = %.lr.ph, %29
  %.val20 = phi i32 [ %.val16, %.lr.ph ], [ %.val, %29 ]
  %indvars.iv = phi i64 [ 0, %.lr.ph ], [ %indvars.iv.next, %29 ]
  %.018 = phi i32 [ %7, %.lr.ph ], [ %.1, %29 ]
  %.val11 = load ptr, ptr %0, align 8, !tbaa !124
  %.val12 = load ptr, ptr %10, align 8, !tbaa !125
  %12 = getelementptr i8, ptr %.val11, i64 32
  %.val11.val = load ptr, ptr %12, align 8, !tbaa !78
  %13 = getelementptr i8, ptr %.val11.val, i64 8
  %.val11.val.val = load ptr, ptr %13, align 8, !tbaa !80
  %14 = getelementptr inbounds nuw i32, ptr %.val12, i64 %indvars.iv
  %15 = load i32, ptr %14, align 4, !tbaa !96
  %16 = sext i32 %15 to i64
  %17 = getelementptr inbounds ptr, ptr %.val11.val.val, i64 %16
  %18 = load ptr, ptr %17, align 8, !tbaa !81
  %19 = getelementptr inbounds nuw i8, ptr %18, i64 44
  %20 = load i32, ptr %19, align 4, !tbaa !126
  %21 = add nsw i32 %20, -1
  store i32 %21, ptr %19, align 4, !tbaa !126
  %22 = icmp eq i32 %21, 0
  br i1 %22, label %23, label %29

23:                                               ; preds = %11
  %24 = getelementptr i8, ptr %18, i64 20
  %.val13 = load i32, ptr %24, align 4
  %25 = and i32 %.val13, 15
  switch i32 %25, label %26 [
    i32 5, label %29
    i32 2, label %29
  ]

26:                                               ; preds = %23
  %27 = tail call i32 @Sfm_MffcDeref_rec(ptr noundef nonnull %18)
  %28 = add nsw i32 %27, %.018
  %.val.pre = load i32, ptr %8, align 4, !tbaa !121
  br label %29

29:                                               ; preds = %23, %23, %11, %26
  %.val = phi i32 [ %.val20, %23 ], [ %.val.pre, %26 ], [ %.val20, %11 ], [ %.val20, %23 ]
  %.1 = phi i32 [ %.018, %23 ], [ %28, %26 ], [ %.018, %11 ], [ %.018, %23 ]
  %indvars.iv.next = add nuw nsw i64 %indvars.iv, 1
  %30 = sext i32 %.val to i64
  %31 = icmp slt i64 %indvars.iv.next, %30
  br i1 %31, label %11, label %.critedge, !llvm.loop !127

.critedge:                                        ; preds = %29, %1
  %.0.lcssa = phi i32 [ %7, %1 ], [ %.1, %29 ]
  ret i32 %.0.lcssa
}